Certificate:
    Data:
        Version: 3 (0x2)
        Serial Number:
            13:67:24:78:35:b9:94:e3:f6:b1:90:02:e0:a9:7c:10:87:c4:87:af
        Signature Algorithm: sha256WithRSAEncryption
        Issuer: C = AU, ST = Some-State, O = Internet Widgits Pty Ltd
        Validity
            Not Before: Aug  2 19:07:33 2020 GMT
            Not After : Sep  1 19:07:33 2020 GMT
        Subject: C = AU, ST = Some-State, O = Internet Widgits Pty Ltd
        Subject Public Key Info:
            Public Key Algorithm: rsaEncryption
                RSA Public-Key: (2048 bit)
                Modulus:
                    00:cb:c0:db:bf:ca:6b:a4:9f:f4:90:a8:65:19:e2:
                    58:a3:3a:36:b7:ad:04:1b:c2:f4:e7:ad:60:d7:74:
                    76:f4:bb:cc:47:98:72:bc:66:65:18:9a:66:9f:ae:
                    7e:03:8c:47:5c:89:c9:62:23:ee:2b:3a:ca:52:70:
                    29:78:b6:7e:bf:0d:47:a1:c3:80:66:d5:8a:d3:3d:
                    eb:db:ab:80:f2:44:18:38:a5:fd:42:df:c3:6c:27:
                    6f:b0:5f:70:17:c8:11:2b:4a:6d:c7:d3:3a:47:5d:
                    cd:bc:1c:6f:55:00:29:7d:cf:63:07:d9:d3:ce:98:
                    4e:80:ce:09:88:46:2f:95:5f:05:2e:18:3d:c9:9a:
                    2f:31:87:7a:5b:07:f7:6a:85:ca:f3:dd:55:43:14:
                    eb:fe:44:18:a2:ad:58:a7:ee:bc:8b:a4:f8:9c:da:
                    bb:35:60:be:50:d5:63:40:7c:4d:40:c4:0c:cd:4e:
                    a5:58:25:fc:cf:28:37:c8:7f:3c:38:04:24:51:72:
                    17:29:f4:3e:36:4b:d8:43:57:31:68:ca:15:3e:96:
                    3b:db:e7:95:b6:12:b3:a4:c7:b2:1e:40:67:ed:c8:
                    ae:9a:4e:6a:80:b4:c4:24:07:d6:66:97:b8:7f:87:
                    85:66:3f:d1:73:c6:3c:26:3d:88:4b:99:15:3e:35:
                    32:c1
                Exponent: 65537 (0x10001)
        X509v3 extensions:
            X509v3 Subject Key Identifier: 
                B6:0C:96:0C:32:C3:87:A8:4A:81:63:6B:B7:9E:5C:45:B4:C7:A2:74
            X509v3 Authority Key Identifier: 
                keyid:B6:0C:96:0C:32:C3:87:A8:4A:81:63:6B:B7:9E:5C:45:B4:C7:A2:74

            X509v3 Basic Constraints: critical
                CA:TRUE
    Signature Algorithm: sha256WithRSAEncryption
         73:69:67:6e:61:74:75:72:65
-----BEGIN CERTIFICATE-----
MIICcjCCAlOgAwIBAgIUE2ckeDW5lOP2sZAC4Kl8EIfEh68wDQYJKoZIhvcNAQEL
BQAwRTELMAkGA1UEBhMCQVUxEzARBgNVBAgMClNvbWUtU3RhdGUxITAfBgNVBAoM
GEludGVybmV0IFdpZGdpdHMgUHR5IEx0ZDAeFw0yMDA4MDIxOTA3MzNaFw0yMDA5
MDExOTA3MzNaMEUxCzAJBgNVBAYTAkFVMRMwEQYDVQQIDApTb21lLVN0YXRlMSEw
HwYDVQQKDBhJbnRlcm5ldCBXaWRnaXRzIFB0eSBMdGQwggEiMA0GCSqGSIb3DQEB
AQUAA4IBDwAwggEKAoIBAQDLwNu/ymukn/SQqGUZ4lijOja3rQQbwvTnrWDXdHb0
u8xHmHK8ZmUYmmafrn4DjEdcicliI+4rOspScCl4tn6/DUehw4Bm1YrTPevbq4Dy
RBg4pf1C38NsJ2+wX3AXyBErSm3H0zpHXc28HG9VACl9z2MH2dPOmE6AzgmIRi+V
XwUuGD3Jmi8xh3pbB/dqhcrz3VVDFOv+RBiirVin7ryLpPic2rs1YL5Q1WNAfE1A
xAzNTqVYJfzPKDfIfzw4BCRRchcp9D42S9hDVzFoyhU+ljvb55W2ErOkx7IeQGft
yK6aTmqAtMQkB9Zml7h/h4VmP9FzxjwmPYhLmRU+NTLBAgMBAAGjUzBRMB0GA1Ud
DgQWBBS2DJYMMsOHqEqBY2u3nlxFtMeidDAfBgNVHSMEGDAWgBS2DJYMMsOHqEqB
Y2u3nlxFtMeidDAPBgNVHRMBAf8EBTADAQH/MA0GCSqGSIb3DQEBCwUAAwoAc2ln
bmF0dXJl
-----END CERTIFICATE-----
